target datalayout = "e-m:e-p270:32:32-p271:32:32-p272:64:64-i64:64-i128:128-f80:128-n8:16:32:64-S128"
target triple = "x86_64-pc-linux-gnu"

%struct.strbuf = type { i64, i64, ptr }
%struct.todo_list = type { %struct.strbuf, ptr, i32, i32, i32, i32, i32 }

@comment_line_str = external global ptr, align 8
@.str.7 = private unnamed_addr constant [21 x i8] c"could not write '%s'\00", align 1
@.str.8 = private unnamed_addr constant [22 x i8] c"could not write '%s'.\00", align 1
@stderr = external global ptr, align 8
@edit_todo_list_advice = internal constant [141 x i8] c"You can fix this with 'git rebase --edit-todo' and then run 'git rebase --continue'.\0AOr you can abort the rebase with 'git rebase --abort'.\0A\00", align 16
@.str.9 = private unnamed_addr constant [3 x i8] c"%s\00", align 1
@.str.10 = private unnamed_addr constant [1 x i8] zeroinitializer, align 1
@__const.todo_list_check_against_backup.backup = private unnamed_addr constant { %struct.strbuf, ptr, i32, i32, i32, i32, i32, [4 x i8] } { %struct.strbuf { i64 0, i64 0, ptr @strbuf_slopbuf }, ptr null, i32 0, i32 0, i32 0, i32 0, i32 0, [4 x i8] zeroinitializer }, align 8
@git_gettext_enabled = external global i32, align 4

; Function Attrs: nounwind uwtable
define dso_local i32 @todo_list_check_against_backup(ptr noundef %0, ptr noundef %1, ptr noundef %2) #0 {
  %4 = alloca ptr, align 8
  %5 = alloca ptr, align 8
  %6 = alloca ptr, align 8
  %7 = alloca %struct.todo_list, align 8
  %8 = alloca i32, align 4
  store ptr %0, ptr %4, align 8, !tbaa !19
  store ptr %1, ptr %5, align 8, !tbaa !21
  store ptr %2, ptr %6, align 8, !tbaa !23
  call void @llvm.lifetime.start.p0(i64 56, ptr %7) #8
  call void @llvm.memcpy.p0.p0.i64(ptr align 8 %7, ptr align 8 @__const.todo_list_check_against_backup.backup, i64 56, i1 false)
  call void @llvm.lifetime.start.p0(i64 4, ptr %8) #8
  store i32 0, ptr %8, align 4, !tbaa !4
  %9 = getelementptr inbounds nuw %struct.todo_list, ptr %7, i32 0, i32 0
  %10 = call ptr @rebase_path_todo_backup()
  %11 = call i64 @strbuf_read_file(ptr noundef %9, ptr noundef %10, i64 noundef 0)
  %12 = icmp sgt i64 %11, 0
  br i1 %12, label %13, label %22

13:                                               ; preds = %3
  %14 = load ptr, ptr %4, align 8, !tbaa !19
  %15 = load ptr, ptr %5, align 8, !tbaa !21
  %16 = getelementptr inbounds nuw %struct.todo_list, ptr %7, i32 0, i32 0
  %17 = getelementptr inbounds nuw %struct.strbuf, ptr %16, i32 0, i32 2
  %18 = load ptr, ptr %17, align 8, !tbaa !25
  %19 = call i32 @todo_list_parse_insn_buffer(ptr noundef %14, ptr noundef %15, ptr noundef %18, ptr noundef %7)
  %20 = load ptr, ptr %6, align 8, !tbaa !23
  %21 = call i32 @todo_list_check(ptr noundef %7, ptr noundef %20)
  store i32 %21, ptr %8, align 4, !tbaa !4
  br label %22

22:                                               ; preds = %13, %3
  call void @todo_list_release(ptr noundef %7)
  %23 = load i32, ptr %8, align 4, !tbaa !4
  call void @llvm.lifetime.end.p0(i64 4, ptr %8) #8
  call void @llvm.lifetime.end.p0(i64 56, ptr %7) #8
  ret i32 %23
}

; Function Attrs: inlinehint nounwind uwtable
define internal i32 @const_error() #2 {
  ret i32 -1
}

; Function Attrs: inlinehint nounwind uwtable
define internal ptr @_(ptr noundef %0) #2 {
  %2 = alloca ptr, align 8
  %3 = alloca ptr, align 8
  store ptr %0, ptr %3, align 8, !tbaa !8
  %4 = load ptr, ptr %3, align 8, !tbaa !8
  %5 = load i8, ptr %4, align 1, !tbaa !13
  %6 = icmp ne i8 %5, 0
  br i1 %6, label %8, label %7

7:                                                ; preds = %1
  store ptr @.str.10, ptr %2, align 8
  br label %16

8:                                                ; preds = %1
  %9 = load i32, ptr @git_gettext_enabled, align 4, !tbaa !4
  %10 = icmp ne i32 %9, 0
  br i1 %10, label %13, label %11

11:                                               ; preds = %8
  %12 = load ptr, ptr %3, align 8, !tbaa !8
  store ptr %12, ptr %2, align 8
  br label %16

13:                                               ; preds = %8
  %14 = load ptr, ptr %3, align 8, !tbaa !8
  %15 = call ptr @dcgettext(ptr noundef null, ptr noundef %14, i32 noundef 5) #8
  store ptr %15, ptr %2, align 8
  br label %16

16:                                               ; preds = %13, %11, %7
  %17 = load ptr, ptr %2, align 8
  ret ptr %17
}

; Function Attrs: nounwind uwtable
define dso_local i32 @edit_todo_list(ptr noundef %0, ptr noundef %1, ptr noundef %2, ptr noundef %3, ptr noundef %4, ptr noundef %5, i32 noundef %6) #0 {
  %8 = alloca i32, align 4
  %9 = alloca ptr, align 8
  %10 = alloca ptr, align 8
  %11 = alloca ptr, align 8
  %12 = alloca ptr, align 8
  %13 = alloca ptr, align 8
  %14 = alloca ptr, align 8
  %15 = alloca i32, align 4
  %16 = alloca ptr, align 8
  %17 = alloca ptr, align 8
  %18 = alloca i32, align 4
  %19 = alloca i32, align 4
  %20 = alloca i32, align 4
  store ptr %0, ptr %9, align 8, !tbaa !19
  store ptr %1, ptr %10, align 8, !tbaa !21
  store ptr %2, ptr %11, align 8, !tbaa !23
  store ptr %3, ptr %12, align 8, !tbaa !23
  store ptr %4, ptr %13, align 8, !tbaa !8
  store ptr %5, ptr %14, align 8, !tbaa !8
  store i32 %6, ptr %15, align 4, !tbaa !4
  call void @llvm.lifetime.start.p0(i64 8, ptr %16) #8
  %21 = call ptr @rebase_path_todo()
  store ptr %21, ptr %16, align 8, !tbaa !8
  call void @llvm.lifetime.start.p0(i64 8, ptr %17) #8
  %22 = call ptr @rebase_path_todo_backup()
  store ptr %22, ptr %17, align 8, !tbaa !8
  call void @llvm.lifetime.start.p0(i64 4, ptr %18) #8
  %23 = load ptr, ptr %13, align 8, !tbaa !8
  %24 = icmp ne ptr %23, null
  br i1 %24, label %25, label %28

25:                                               ; preds = %7
  %26 = load ptr, ptr %14, align 8, !tbaa !8
  %27 = icmp ne ptr %26, null
  br label %28

28:                                               ; preds = %25, %7
  %29 = phi i1 [ false, %7 ], [ %27, %25 ]
  %30 = zext i1 %29 to i32
  store i32 %30, ptr %18, align 4, !tbaa !4
  call void @llvm.lifetime.start.p0(i64 4, ptr %19) #8
  store i32 0, ptr %19, align 4, !tbaa !4
  %31 = load i32, ptr %18, align 4, !tbaa !4
  %32 = icmp ne i32 %31, 0
  br i1 %32, label %45, label %33

33:                                               ; preds = %28
  %34 = load ptr, ptr %9, align 8, !tbaa !19
  %35 = load ptr, ptr %10, align 8, !tbaa !21
  %36 = load ptr, ptr %11, align 8, !tbaa !23
  %37 = getelementptr inbounds nuw %struct.todo_list, ptr %36, i32 0, i32 0
  %38 = getelementptr inbounds nuw %struct.strbuf, ptr %37, i32 0, i32 2
  %39 = load ptr, ptr %38, align 8, !tbaa !25
  %40 = load ptr, ptr %11, align 8, !tbaa !23
  %41 = call i32 @todo_list_parse_insn_buffer(ptr noundef %34, ptr noundef %35, ptr noundef %39, ptr noundef %40)
  %42 = call ptr @rebase_path_dropped()
  %43 = call i32 @file_exists(ptr noundef %42)
  %44 = or i32 %41, %43
  store i32 %44, ptr %19, align 4, !tbaa !4
  br label %45

45:                                               ; preds = %33, %28
  %46 = load ptr, ptr %9, align 8, !tbaa !19
  %47 = load ptr, ptr %11, align 8, !tbaa !23
  %48 = load ptr, ptr %16, align 8, !tbaa !8
  %49 = load ptr, ptr %13, align 8, !tbaa !8
  %50 = load ptr, ptr %14, align 8, !tbaa !8
  %51 = load i32, ptr %15, align 4, !tbaa !4
  %52 = or i32 %51, 2
  %53 = or i32 %52, 32
  %54 = call i32 @todo_list_write_to_file(ptr noundef %46, ptr noundef %47, ptr noundef %48, ptr noundef %49, ptr noundef %50, i32 noundef -1, i32 noundef %53)
  %55 = icmp ne i32 %54, 0
  br i1 %55, label %56, label %61

56:                                               ; preds = %45
  %57 = call ptr @_(ptr noundef @.str.7)
  %58 = load ptr, ptr %16, align 8, !tbaa !8
  %59 = call i32 (ptr, ...) @error_errno(ptr noundef %57, ptr noundef %58)
  %60 = call i32 @const_error()
  store i32 %60, ptr %8, align 4
  store i32 1, ptr %20, align 4
  br label %143

61:                                               ; preds = %45
  %62 = load i32, ptr %19, align 4, !tbaa !4
  %63 = icmp ne i32 %62, 0
  br i1 %63, label %80, label %64

64:                                               ; preds = %61
  %65 = load ptr, ptr %9, align 8, !tbaa !19
  %66 = load ptr, ptr %11, align 8, !tbaa !23
  %67 = load ptr, ptr %17, align 8, !tbaa !8
  %68 = load ptr, ptr %13, align 8, !tbaa !8
  %69 = load ptr, ptr %14, align 8, !tbaa !8
  %70 = load i32, ptr %15, align 4, !tbaa !4
  %71 = or i32 %70, 32
  %72 = and i32 %71, -3
  %73 = call i32 @todo_list_write_to_file(ptr noundef %65, ptr noundef %66, ptr noundef %67, ptr noundef %68, ptr noundef %69, i32 noundef -1, i32 noundef %72)
  %74 = icmp slt i32 %73, 0
  br i1 %74, label %75, label %80

75:                                               ; preds = %64
  %76 = call ptr @_(ptr noundef @.str.8)
  %77 = call ptr @rebase_path_todo_backup()
  %78 = call i32 (ptr, ...) @error(ptr noundef %76, ptr noundef %77)
  %79 = call i32 @const_error()
  store i32 %79, ptr %8, align 4
  store i32 1, ptr %20, align 4
  br label %143

80:                                               ; preds = %64, %61
  %81 = load ptr, ptr %16, align 8, !tbaa !8
  %82 = load ptr, ptr %12, align 8, !tbaa !23
  %83 = getelementptr inbounds nuw %struct.todo_list, ptr %82, i32 0, i32 0
  %84 = call i32 @launch_sequence_editor(ptr noundef %81, ptr noundef %83, ptr noundef null)
  %85 = icmp ne i32 %84, 0
  br i1 %85, label %86, label %87

86:                                               ; preds = %80
  store i32 -2, ptr %8, align 4
  store i32 1, ptr %20, align 4
  br label %143

87:                                               ; preds = %80
  %88 = load ptr, ptr %12, align 8, !tbaa !23
  %89 = getelementptr inbounds nuw %struct.todo_list, ptr %88, i32 0, i32 0
  %90 = load ptr, ptr @comment_line_str, align 8, !tbaa !8
  call void @strbuf_stripspace(ptr noundef %89, ptr noundef %90)
  %91 = load i32, ptr %18, align 4, !tbaa !4
  %92 = icmp ne i32 %91, 0
  br i1 %92, label %93, label %100

93:                                               ; preds = %87
  %94 = load ptr, ptr %12, align 8, !tbaa !23
  %95 = getelementptr inbounds nuw %struct.todo_list, ptr %94, i32 0, i32 0
  %96 = getelementptr inbounds nuw %struct.strbuf, ptr %95, i32 0, i32 1
  %97 = load i64, ptr %96, align 8, !tbaa !28
  %98 = icmp eq i64 %97, 0
  br i1 %98, label %99, label %100

99:                                               ; preds = %93
  store i32 -3, ptr %8, align 4
  store i32 1, ptr %20, align 4
  br label %143

100:                                              ; preds = %93, %87
  %101 = load ptr, ptr %9, align 8, !tbaa !19
  %102 = load ptr, ptr %10, align 8, !tbaa !21
  %103 = load ptr, ptr %12, align 8, !tbaa !23
  %104 = getelementptr inbounds nuw %struct.todo_list, ptr %103, i32 0, i32 0
  %105 = getelementptr inbounds nuw %struct.strbuf, ptr %104, i32 0, i32 2
  %106 = load ptr, ptr %105, align 8, !tbaa !25
  %107 = load ptr, ptr %12, align 8, !tbaa !23
  %108 = call i32 @todo_list_parse_insn_buffer(ptr noundef %101, ptr noundef %102, ptr noundef %106, ptr noundef %107)
  %109 = icmp ne i32 %108, 0
  br i1 %109, label %110, label %114

110:                                              ; preds = %100
  %111 = load ptr, ptr @stderr, align 8, !tbaa !29
  %112 = call ptr @_(ptr noundef @edit_todo_list_advice)
  %113 = call i32 (ptr, ptr, ...) @fprintf(ptr noundef %111, ptr noundef %112) #8
  store i32 -4, ptr %8, align 4
  store i32 1, ptr %20, align 4
  br label %143

114:                                              ; preds = %100
  %115 = load i32, ptr %19, align 4, !tbaa !4
  %116 = icmp ne i32 %115, 0
  br i1 %116, label %117, label %132

117:                                              ; preds = %114
  %118 = load ptr, ptr %9, align 8, !tbaa !19
  %119 = load ptr, ptr %10, align 8, !tbaa !21
  %120 = load ptr, ptr %12, align 8, !tbaa !23
  %121 = call i32 @todo_list_check_against_backup(ptr noundef %118, ptr noundef %119, ptr noundef %120)
  %122 = icmp ne i32 %121, 0
  br i1 %122, label %123, label %125

123:                                              ; preds = %117
  %124 = call ptr @rebase_path_dropped()
  call void (ptr, ptr, ...) @write_file(ptr noundef %124, ptr noundef @.str.9, ptr noundef @.str.10)
  store i32 -4, ptr %8, align 4
  store i32 1, ptr %20, align 4
  br label %143

125:                                              ; preds = %117
  %126 = load i32, ptr %19, align 4, !tbaa !4
  %127 = icmp sgt i32 %126, 0
  br i1 %127, label %128, label %131

128:                                              ; preds = %125
  %129 = call ptr @rebase_path_dropped()
  %130 = call i32 @unlink(ptr noundef %129) #8
  br label %131

131:                                              ; preds = %128, %125
  br label %140

132:                                              ; preds = %114
  %133 = load ptr, ptr %11, align 8, !tbaa !23
  %134 = load ptr, ptr %12, align 8, !tbaa !23
  %135 = call i32 @todo_list_check(ptr noundef %133, ptr noundef %134)
  %136 = icmp ne i32 %135, 0
  br i1 %136, label %137, label %139

137:                                              ; preds = %132
  %138 = call ptr @rebase_path_dropped()
  call void (ptr, ptr, ...) @write_file(ptr noundef %138, ptr noundef @.str.9, ptr noundef @.str.10)
  store i32 -4, ptr %8, align 4
  store i32 1, ptr %20, align 4
  br label %143

139:                                              ; preds = %132
  br label %140

140:                                              ; preds = %139, %131
  %141 = load ptr, ptr %9, align 8, !tbaa !19
  %142 = load ptr, ptr %12, align 8, !tbaa !23
  call void @todo_list_filter_update_refs(ptr noundef %141, ptr noundef %142)
  store i32 0, ptr %8, align 4
  store i32 1, ptr %20, align 4
  br label %143

143:                                              ; preds = %140, %137, %123, %110, %99, %86, %75, %56
  call void @llvm.lifetime.end.p0(i64 4, ptr %19) #8
  call void @llvm.lifetime.end.p0(i64 4, ptr %18) #8
  call void @llvm.lifetime.end.p0(i64 8, ptr %17) #8
  call void @llvm.lifetime.end.p0(i64 8, ptr %16) #8
  %144 = load i32, ptr %8, align 4
  ret i32 %144
}