; Function Attrs: nounwind uwtable
define dso_local range(i32 -4, 1) i32 @edit_todo_list(ptr noundef %0, ptr noundef %1, ptr noundef %2, ptr noundef %3, ptr noundef %4, ptr noundef %5, i32 noundef %6) local_unnamed_addr #0 {
  %8 = alloca %struct.todo_list, align 8
  %9 = tail call ptr @rebase_path_todo() #10
  %10 = tail call ptr @rebase_path_todo_backup() #10
  %11 = icmp ne ptr %4, null
  %12 = icmp ne ptr %5, null
  %13 = and i1 %11, %12
  br i1 %13, label %21, label %14

14:                                               ; preds = %7
  %15 = getelementptr inbounds nuw i8, ptr %2, i64 16
  %16 = load ptr, ptr %15, align 8, !tbaa !19
  %17 = tail call i32 @todo_list_parse_insn_buffer(ptr noundef %0, ptr noundef %1, ptr noundef %16, ptr noundef %2) #10
  %18 = tail call ptr @rebase_path_dropped() #10
  %19 = tail call i32 @file_exists(ptr noundef %18) #10
  %20 = or i32 %19, %17
  br label %21

21:                                               ; preds = %14, %7
  %.0 = phi i32 [ 0, %7 ], [ %20, %14 ]
  %22 = or i32 %6, 34
  %23 = tail call i32 @todo_list_write_to_file(ptr noundef %0, ptr noundef %2, ptr noundef %9, ptr noundef %4, ptr noundef %5, i32 noundef -1, i32 noundef %22) #10
  %.not = icmp eq i32 %23, 0
  br i1 %.not, label %29, label %24

24:                                               ; preds = %21
  %25 = load i32, ptr @git_gettext_enabled, align 4, !tbaa !4
  %.not4.i = icmp eq i32 %25, 0
  br i1 %.not4.i, label %_.exit, label %26

26:                                               ; preds = %24
  %27 = tail call ptr @dcgettext(ptr noundef null, ptr noundef nonnull @.str.7, i32 noundef 5) #10
  br label %_.exit

_.exit:                                           ; preds = %24, %26
  %.0.i = phi ptr [ %27, %26 ], [ @.str.7, %24 ]
  %28 = tail call i32 (ptr, ...) @error_errno(ptr noundef %.0.i, ptr noundef %9) #10
  br label %80

29:                                               ; preds = %21
  %.not40 = icmp eq i32 %.0, 0
  br i1 %.not40, label %30, label %41

30:                                               ; preds = %29
  %31 = and i32 %6, -35
  %32 = or disjoint i32 %31, 32
  %33 = tail call i32 @todo_list_write_to_file(ptr noundef %0, ptr noundef %2, ptr noundef %10, ptr noundef %4, ptr noundef %5, i32 noundef -1, i32 noundef %32) #10
  %34 = icmp slt i32 %33, 0
  br i1 %34, label %35, label %41

35:                                               ; preds = %30
  %36 = load i32, ptr @git_gettext_enabled, align 4, !tbaa !4
  %.not4.i45 = icmp eq i32 %36, 0
  br i1 %.not4.i45, label %_.exit47, label %37

37:                                               ; preds = %35
  %38 = tail call ptr @dcgettext(ptr noundef null, ptr noundef nonnull @.str.8, i32 noundef 5) #10
  br label %_.exit47

_.exit47:                                         ; preds = %35, %37
  %.0.i46 = phi ptr [ %38, %37 ], [ @.str.8, %35 ]
  %39 = tail call ptr @rebase_path_todo_backup() #10
  %40 = tail call i32 (ptr, ...) @error(ptr noundef %.0.i46, ptr noundef %39) #10
  br label %80

41:                                               ; preds = %30, %29
  %42 = tail call i32 @launch_sequence_editor(ptr noundef %9, ptr noundef %3, ptr noundef null) #10
  %.not41 = icmp eq i32 %42, 0
  br i1 %.not41, label %43, label %80

43:                                               ; preds = %41
  %44 = load ptr, ptr @comment_line_str, align 8, !tbaa !16
  tail call void @strbuf_stripspace(ptr noundef %3, ptr noundef %44) #10
  br i1 %13, label %45, label %49

45:                                               ; preds = %43
  %46 = getelementptr inbounds nuw i8, ptr %3, i64 8
  %47 = load i64, ptr %46, align 8, !tbaa !22
  %48 = icmp eq i64 %47, 0
  br i1 %48, label %80, label %49

49:                                               ; preds = %45, %43
  %50 = getelementptr inbounds nuw i8, ptr %3, i64 16
  %51 = load ptr, ptr %50, align 8, !tbaa !19
  %52 = tail call i32 @todo_list_parse_insn_buffer(ptr noundef %0, ptr noundef %1, ptr noundef %51, ptr noundef %3) #10
  %.not42 = icmp eq i32 %52, 0
  br i1 %.not42, label %59, label %53

53:                                               ; preds = %49
  %54 = load ptr, ptr @stderr, align 8, !tbaa !23
  %55 = load i32, ptr @git_gettext_enabled, align 4, !tbaa !4
  %.not4.i48 = icmp eq i32 %55, 0
  br i1 %.not4.i48, label %_.exit50, label %56

56:                                               ; preds = %53
  %57 = tail call ptr @dcgettext(ptr noundef null, ptr noundef nonnull @edit_todo_list_advice, i32 noundef 5) #10
  br label %_.exit50

_.exit50:                                         ; preds = %53, %56
  %.0.i49 = phi ptr [ %57, %56 ], [ @edit_todo_list_advice, %53 ]
  %58 = tail call i32 (ptr, ptr, ...) @fprintf(ptr noundef %54, ptr noundef %.0.i49) #12
  br label %80

59:                                               ; preds = %49
  br i1 %.not40, label %75, label %60

60:                                               ; preds = %59
  call void @llvm.lifetime.start.p0(i64 56, ptr nonnull %8) #10
  call void @llvm.memcpy.p0.p0.i64(ptr noundef nonnull align 8 dereferenceable(56) %8, ptr noundef nonnull align 8 dereferenceable(56) @__const.todo_list_check_against_backup.backup, i64 56, i1 false)
  %61 = tail call ptr @rebase_path_todo_backup() #10
  %62 = call i64 @strbuf_read_file(ptr noundef nonnull %8, ptr noundef %61, i64 noundef 0) #10
  %63 = icmp sgt i64 %62, 0
  br i1 %63, label %todo_list_check_against_backup.exit, label %todo_list_check_against_backup.exit.thread

todo_list_check_against_backup.exit.thread:       ; preds = %60
  call void @todo_list_release(ptr noundef nonnull %8) #10
  call void @llvm.lifetime.end.p0(i64 56, ptr nonnull %8) #10
  br label %70

todo_list_check_against_backup.exit:              ; preds = %60
  %64 = getelementptr inbounds nuw i8, ptr %8, i64 16
  %65 = load ptr, ptr %64, align 8, !tbaa !19
  %66 = call i32 @todo_list_parse_insn_buffer(ptr noundef %0, ptr noundef %1, ptr noundef %65, ptr noundef nonnull %8) #10
  %67 = call i32 @todo_list_check(ptr noundef nonnull %8, ptr noundef nonnull readonly %3)
  call void @todo_list_release(ptr noundef nonnull %8) #10
  call void @llvm.lifetime.end.p0(i64 56, ptr nonnull %8) #10
  %.not44 = icmp eq i32 %67, 0
  br i1 %.not44, label %70, label %68

68:                                               ; preds = %todo_list_check_against_backup.exit
  %69 = call ptr @rebase_path_dropped() #10
  call void (ptr, ptr, ...) @write_file(ptr noundef %69, ptr noundef nonnull @.str.9, ptr noundef nonnull @.str.10) #10
  br label %80

70:                                               ; preds = %todo_list_check_against_backup.exit.thread, %todo_list_check_against_backup.exit
  %71 = icmp sgt i32 %.0, 0
  br i1 %71, label %72, label %79

72:                                               ; preds = %70
  %73 = call ptr @rebase_path_dropped() #10
  %74 = call i32 @unlink(ptr noundef %73) #10
  br label %79

75:                                               ; preds = %59
  %76 = tail call i32 @todo_list_check(ptr noundef %2, ptr noundef nonnull %3)
  %.not43 = icmp eq i32 %76, 0
  br i1 %.not43, label %79, label %77

77:                                               ; preds = %75
  %78 = tail call ptr @rebase_path_dropped() #10
  tail call void (ptr, ptr, ...) @write_file(ptr noundef %78, ptr noundef nonnull @.str.9, ptr noundef nonnull @.str.10) #10
  br label %80

79:                                               ; preds = %75, %70, %72
  call void @todo_list_filter_update_refs(ptr noundef %0, ptr noundef nonnull %3) #10
  br label %80

80:                                               ; preds = %45, %41, %79, %77, %68, %_.exit50, %_.exit47, %_.exit
  %.039 = phi i32 [ -1, %_.exit ], [ -4, %_.exit50 ], [ -4, %68 ], [ 0, %79 ], [ -4, %77 ], [ -1, %_.exit47 ], [ -2, %41 ], [ -3, %45 ]
  ret i32 %.039
}